target datalayout = "e-m:e-p270:32:32-p271:32:32-p272:64:64-i64:64-i128:128-f80:128-n8:16:32:64-S128"
target triple = "x86_64-pc-linux-gnu"

%class.QString = type { %struct.QArrayDataPointer }
%struct.QArrayDataPointer = type { ptr, ptr, i64 }
%class.SequenceDialog = type <{ %class.WiresharkDialog.base, [3 x i8], ptr, ptr, ptr, i32, i32, double, i32, i8, [3 x i8], ptr, ptr, ptr, %class.QMenu, ptr, ptr, ptr, ptr, %class.QPointer, i8, [7 x i8] }>
%class.WiresharkDialog.base = type <{ %class.GeometryStateDialog, ptr, i8, [7 x i8], %class.QString, %class.QList, i32, i8 }>
%class.GeometryStateDialog = type { %class.QDialog, %class.QString, ptr }
%class.QDialog = type { %class.QWidget }
%class.QWidget = type { %class.QObject, %class.QPaintDevice.base, ptr }
%class.QObject = type { ptr, %class.QScopedPointer }
%class.QScopedPointer = type { ptr }
%class.QPaintDevice.base = type <{ ptr, i16 }>
%class.QList = type { %struct.QArrayDataPointer.0 }
%struct.QArrayDataPointer.0 = type { ptr, ptr, i64 }
%class.QMenu = type { %class.QWidget }
%class.QPointer = type { %class.QWeakPointer }
%class.QWeakPointer = type { ptr, ptr }
%class.Ui_SequenceDialog = type { ptr, ptr, ptr, ptr, ptr, ptr, ptr, ptr, ptr, ptr, ptr, ptr, ptr, ptr, ptr, ptr, ptr, ptr, ptr, ptr, ptr, ptr, ptr, ptr, ptr, ptr, ptr, ptr, ptr, ptr, ptr, ptr, ptr, ptr, ptr, ptr, ptr, ptr }
%struct._seq_analysis_info = type { ptr, i8, i32, ptr, ptr, [40 x %struct._address], [40 x i8], i32 }
%struct._address = type { i32, i32, ptr, ptr }
%class.SequenceInfo = type <{ ptr, i32, [4 x i8] }>
%class.WiresharkDialog = type <{ %class.GeometryStateDialog, ptr, i8, [7 x i8], %class.QString, %class.QList, i32, i8, [3 x i8] }>
%struct._capture_file = type { ptr, i32, ptr, ptr, i8, i8, i8, i64, i16, i32, i32, i32, ptr, i32, i64, i32, i32, i32, i32, i8, i32, %struct.nstime_t, i32, ptr, ptr, ptr, i8, i8, i32, ptr, i8, i8, i8, i8, i8, i32, i32, i8, ptr, i32, i32, i8, %struct.packet_provider_data, i32, i32, %struct.epan_column_info, ptr, ptr, ptr, %struct.wtap_rec, %struct.Buffer, ptr, i64, i32 }
%struct.nstime_t = type { i64, i32 }
%struct.packet_provider_data = type { ptr, ptr, ptr, ptr, ptr, ptr }
%struct.epan_column_info = type { ptr, i32, ptr, ptr, ptr, %struct.col_expr_t, i8, ptr }
%struct.col_expr_t = type { ptr, ptr }
%struct.wtap_rec = type { i32, i32, i32, %struct.nstime_t, i32, %struct.nstime_t, i8, %union.anon.84, ptr, i8, %struct.Buffer, %struct.Buffer }
%union.anon.84 = type { %struct.wtap_packet_header }
%struct.wtap_packet_header = type { i32, i32, i32, i32, %union.wtap_pseudo_header }
%union.wtap_pseudo_header = type { %struct.erf_mc_phdr }
%struct.erf_mc_phdr = type { %struct.erf_phdr, [16 x %struct.erf_ehdr], %union.anon.87 }
%struct.erf_phdr = type { i64, i8, i8, i16, i16, i16 }
%struct.erf_ehdr = type { i64 }
%union.anon.87 = type { i32 }
%struct.Buffer = type { ptr, i64, i64, i64 }
%struct._GString = type { ptr, i64, i64 }
%class.CaptureFile = type { %class.QObject, ptr, %class.QString }

@.str.12 = private unnamed_addr constant [5 x i8] c"voip\00", align 1
@.str.34 = private unnamed_addr constant [46 x i8] c"Sequence dialog - tap registration failed: %s\00", align 1

; Function Attrs: inlinehint mustprogress null_pointer_is_valid sspstrong uwtable
define linkonce_odr void @_ZN7QWidget8setFocusEv(ptr noundef align 8 dereferenceable_or_null(40) %0) #5 comdat align 2 {
  %2 = alloca ptr, align 8
  store ptr %0, ptr %2, align 8
  %3 = load ptr, ptr %2, align 8
  call void @_ZN7QWidget8setFocusEN2Qt11FocusReasonE(ptr noundef align 8 dereferenceable_or_null(40) %3, i32 noundef 7)
  ret void
}

; Function Attrs: mustprogress null_pointer_is_valid sspstrong uwtable
define linkonce_odr noundef ptr @_ZNK11CaptureFile7capFileEv(ptr noundef align 8 dereferenceable_or_null(48) %0) #0 comdat align 2 {
  %2 = alloca ptr, align 8
  store ptr %0, ptr %2, align 8
  %3 = load ptr, ptr %2, align 8
  %4 = call noundef zeroext i1 @_ZNK11CaptureFile7isValidEv(ptr noundef align 8 dereferenceable_or_null(48) %3)
  br i1 %4, label %5, label %8

5:                                                ; preds = %1
  %6 = getelementptr inbounds nuw %class.CaptureFile, ptr %3, i32 0, i32 1
  %7 = load ptr, ptr %6, align 8
  br label %9

8:                                                ; preds = %1
  br label %9

9:                                                ; preds = %8, %5
  %10 = phi ptr [ %7, %5 ], [ null, %8 ]
  ret ptr %10
}

; Function Attrs: mustprogress nounwind null_pointer_is_valid sspstrong uwtable
define linkonce_odr noundef ptr @_ZN12SequenceInfo6sainfoEv(ptr noundef align 8 dereferenceable_or_null(12) %0) #3 comdat align 2 {
  %2 = alloca ptr, align 8
  store ptr %0, ptr %2, align 8
  %3 = load ptr, ptr %2, align 8
  %4 = getelementptr inbounds nuw %class.SequenceInfo, ptr %3, i32 0, i32 0
  %5 = load ptr, ptr %4, align 8
  ret ptr %5
}

; Function Attrs: mustprogress null_pointer_is_valid sspstrong uwtable
define void @_ZN14SequenceDialog11fillDiagramEv(ptr noundef align 8 dereferenceable_or_null(305) %0) #0 align 2 {
  %2 = alloca ptr, align 8
  %3 = alloca ptr, align 8
  %4 = alloca ptr, align 8
  %5 = alloca ptr, align 8
  %6 = alloca ptr, align 8
  store ptr %0, ptr %2, align 8
  %7 = load ptr, ptr %2, align 8
  %8 = getelementptr inbounds nuw %class.SequenceDialog, ptr %7, i32 0, i32 4
  %9 = load ptr, ptr %8, align 8
  %10 = call noundef ptr @_ZN12SequenceInfo6sainfoEv(ptr noundef align 8 dereferenceable_or_null(12) %9)
  %11 = icmp ne ptr %10, null
  br i1 %11, label %12, label %16

12:                                               ; preds = %1
  %13 = getelementptr inbounds nuw %class.WiresharkDialog, ptr %7, i32 0, i32 2
  %14 = load i8, ptr %13, align 8, !range !6, !noundef !7
  %15 = trunc i8 %14 to i1
  br i1 %15, label %16, label %17

16:                                               ; preds = %12, %1
  br label %111

17:                                               ; preds = %12
  call void @llvm.lifetime.start.p0(i64 8, ptr %3) #25
  %18 = getelementptr inbounds nuw %class.SequenceDialog, ptr %7, i32 0, i32 2
  %19 = load ptr, ptr %18, align 8
  %20 = getelementptr inbounds nuw %class.Ui_SequenceDialog, ptr %19, i32 0, i32 22
  %21 = load ptr, ptr %20, align 8
  store ptr %21, ptr %3, align 8
  %22 = getelementptr inbounds nuw %class.SequenceDialog, ptr %7, i32 0, i32 4
  %23 = load ptr, ptr %22, align 8
  %24 = call noundef ptr @_ZN12SequenceInfo6sainfoEv(ptr noundef align 8 dereferenceable_or_null(12) %23)
  %25 = getelementptr inbounds nuw %struct._seq_analysis_info, ptr %24, i32 0, i32 0
  %26 = load ptr, ptr %25, align 8
  %27 = call i32 @strcmp(ptr noundef %26, ptr noundef @.str.12) #28
  %28 = icmp eq i32 %27, 0
  br i1 %28, label %29, label %35

29:                                               ; preds = %17
  %30 = getelementptr inbounds nuw %class.SequenceDialog, ptr %7, i32 0, i32 3
  %31 = load ptr, ptr %30, align 8
  %32 = getelementptr inbounds nuw %class.SequenceDialog, ptr %7, i32 0, i32 4
  %33 = load ptr, ptr %32, align 8
  %34 = call noundef ptr @_ZN12SequenceInfo6sainfoEv(ptr noundef align 8 dereferenceable_or_null(12) %33)
  call void @_ZN15SequenceDiagram7setDataEP18_seq_analysis_info(ptr noundef align 8 dereferenceable_or_null(240) %31, ptr noundef %34)
  br label %104

35:                                               ; preds = %17
  %36 = getelementptr inbounds nuw %class.SequenceDialog, ptr %7, i32 0, i32 3
  %37 = load ptr, ptr %36, align 8
  %38 = load ptr, ptr %37, align 8
  %39 = getelementptr inbounds ptr, ptr %38, i64 29
  %40 = load ptr, ptr %39, align 8
  call void %40(ptr noundef align 8 dereferenceable_or_null(240) %37)
  %41 = getelementptr inbounds nuw %class.SequenceDialog, ptr %7, i32 0, i32 4
  %42 = load ptr, ptr %41, align 8
  %43 = call noundef ptr @_ZN12SequenceInfo6sainfoEv(ptr noundef align 8 dereferenceable_or_null(12) %42)
  call void @sequence_analysis_list_free(ptr noundef %43)
  call void @llvm.lifetime.start.p0(i64 8, ptr %4) #25
  %44 = getelementptr inbounds nuw %class.SequenceDialog, ptr %7, i32 0, i32 4
  %45 = load ptr, ptr %44, align 8
  %46 = call noundef ptr @_ZN12SequenceInfo6sainfoEv(ptr noundef align 8 dereferenceable_or_null(12) %45)
  %47 = getelementptr inbounds nuw %struct._seq_analysis_info, ptr %46, i32 0, i32 0
  %48 = load ptr, ptr %47, align 8
  %49 = call ptr @sequence_analysis_find_by_name(ptr noundef %48)
  store ptr %49, ptr %4, align 8
  %50 = load ptr, ptr %4, align 8
  %51 = icmp ne ptr %50, null
  br i1 %51, label %52, label %103

52:                                               ; preds = %35
  call void @llvm.lifetime.start.p0(i64 8, ptr %5) #25
  call void @llvm.lifetime.start.p0(i64 8, ptr %6) #25
  store ptr null, ptr %6, align 8
  %53 = getelementptr inbounds nuw %class.SequenceDialog, ptr %7, i32 0, i32 2
  %54 = load ptr, ptr %53, align 8
  %55 = getelementptr inbounds nuw %class.Ui_SequenceDialog, ptr %54, i32 0, i32 30
  %56 = load ptr, ptr %55, align 8
  %57 = call noundef i32 @_ZNK9QCheckBox10checkStateEv(ptr noundef align 8 dereferenceable_or_null(40) %56)
  %58 = icmp eq i32 %57, 2
  br i1 %58, label %59, label %65

59:                                               ; preds = %52
  %60 = getelementptr inbounds nuw %class.WiresharkDialog, ptr %7, i32 0, i32 1
  %61 = load ptr, ptr %60, align 8
  %62 = call noundef ptr @_ZNK11CaptureFile7capFileEv(ptr noundef align 8 dereferenceable_or_null(48) %61)
  %63 = getelementptr inbounds nuw %struct._capture_file, ptr %62, i32 0, i32 25
  %64 = load ptr, ptr %63, align 8
  store ptr %64, ptr %6, align 8
  br label %65

65:                                               ; preds = %59, %52
  %66 = load ptr, ptr %4, align 8
  %67 = call ptr @sequence_analysis_get_tap_listener_name(ptr noundef %66)
  %68 = getelementptr inbounds nuw %class.SequenceDialog, ptr %7, i32 0, i32 4
  %69 = load ptr, ptr %68, align 8
  %70 = call noundef ptr @_ZN12SequenceInfo6sainfoEv(ptr noundef align 8 dereferenceable_or_null(12) %69)
  %71 = load ptr, ptr %6, align 8
  %72 = load ptr, ptr %4, align 8
  %73 = call i32 @sequence_analysis_get_tap_flags(ptr noundef %72)
  %74 = load ptr, ptr %4, align 8
  %75 = call ptr @sequence_analysis_get_packet_func(ptr noundef %74)
  %76 = call ptr @register_tap_listener(ptr noundef %67, ptr noundef %70, ptr noundef %71, i32 noundef %73, ptr noundef null, ptr noundef %75, ptr noundef null, ptr noundef null)
  store ptr %76, ptr %5, align 8
  %77 = load ptr, ptr %5, align 8
  %78 = icmp ne ptr %77, null
  br i1 %78, label %79, label %85

79:                                               ; preds = %65
  %80 = load ptr, ptr %5, align 8
  %81 = getelementptr inbounds nuw %struct._GString, ptr %80, i32 0, i32 0
  %82 = load ptr, ptr %81, align 8
  call void (ptr, ...) @report_failure(ptr noundef @.str.34, ptr noundef %82)
  %83 = load ptr, ptr %5, align 8
  %84 = call ptr @g_string_free(ptr noundef %83, i32 noundef 1)
  br label %85

85:                                               ; preds = %79, %65
  %86 = getelementptr inbounds nuw %class.WiresharkDialog, ptr %7, i32 0, i32 1
  %87 = load ptr, ptr %86, align 8
  %88 = call noundef ptr @_ZNK11CaptureFile7capFileEv(ptr noundef align 8 dereferenceable_or_null(48) %87)
  %89 = call i32 @cf_retap_packets(ptr noundef %88)
  %90 = getelementptr inbounds nuw %class.SequenceDialog, ptr %7, i32 0, i32 4
  %91 = load ptr, ptr %90, align 8
  %92 = call noundef ptr @_ZN12SequenceInfo6sainfoEv(ptr noundef align 8 dereferenceable_or_null(12) %91)
  call void @remove_tap_listener(ptr noundef %92)
  %93 = getelementptr inbounds nuw %class.SequenceDialog, ptr %7, i32 0, i32 4
  %94 = load ptr, ptr %93, align 8
  %95 = call noundef ptr @_ZN12SequenceInfo6sainfoEv(ptr noundef align 8 dereferenceable_or_null(12) %94)
  %96 = call i32 @sequence_analysis_get_nodes(ptr noundef %95)
  %97 = getelementptr inbounds nuw %class.SequenceDialog, ptr %7, i32 0, i32 5
  store i32 %96, ptr %97, align 8
  %98 = getelementptr inbounds nuw %class.SequenceDialog, ptr %7, i32 0, i32 3
  %99 = load ptr, ptr %98, align 8
  %100 = getelementptr inbounds nuw %class.SequenceDialog, ptr %7, i32 0, i32 4
  %101 = load ptr, ptr %100, align 8
  %102 = call noundef ptr @_ZN12SequenceInfo6sainfoEv(ptr noundef align 8 dereferenceable_or_null(12) %101)
  call void @_ZN15SequenceDiagram7setDataEP18_seq_analysis_info(ptr noundef align 8 dereferenceable_or_null(240) %99, ptr noundef %102)
  call void @llvm.lifetime.end.p0(i64 8, ptr %6) #25
  call void @llvm.lifetime.end.p0(i64 8, ptr %5) #25
  br label %103

103:                                              ; preds = %85, %35
  call void @llvm.lifetime.end.p0(i64 8, ptr %4) #25
  br label %104

104:                                              ; preds = %103, %29
  %105 = getelementptr inbounds nuw %class.SequenceDialog, ptr %7, i32 0, i32 7
  %106 = load double, ptr %105, align 8
  %107 = fmul double %106, 1.500000e+01
  %108 = fptosi double %107 to i32
  %109 = getelementptr inbounds nuw %class.SequenceDialog, ptr %7, i32 0, i32 8
  store i32 %108, ptr %109, align 8
  call void @_ZN14SequenceDialog10mouseMovedEP11QMouseEvent(ptr noundef align 8 dereferenceable_or_null(305) %7, ptr noundef null)
  call void @_ZN14SequenceDialog9resetAxesEb(ptr noundef align 8 dereferenceable_or_null(305) %7, i1 noundef zeroext false)
  %110 = load ptr, ptr %3, align 8
  call void @_ZN7QWidget8setFocusEv(ptr noundef align 8 dereferenceable_or_null(40) %110)
  call void @llvm.lifetime.end.p0(i64 8, ptr %3) #25
  br label %111

111:                                              ; preds = %104, %16
  ret void
}