; Function Attrs: mustprogress null_pointer_is_valid sspstrong uwtable
define void @_ZN14SequenceDialog11fillDiagramEv(ptr noundef align 8 captures(none) dereferenceable_or_null(305) %0) local_unnamed_addr #0 align 2 {
  %2 = getelementptr inbounds nuw i8, ptr %0, i64 160
  %3 = load ptr, ptr %2, align 8
  %4 = load ptr, ptr %3, align 8
  %.not = icmp eq ptr %4, null
  br i1 %.not, label %80, label %5

5:                                                ; preds = %1
  %6 = getelementptr inbounds nuw i8, ptr %0, i64 80
  %7 = load i8, ptr %6, align 8, !range !12, !noundef !13
  %8 = trunc nuw i8 %7 to i1
  br i1 %8, label %80, label %9

9:                                                ; preds = %5
  %10 = getelementptr inbounds nuw i8, ptr %0, i64 144
  %11 = load ptr, ptr %10, align 8
  %12 = getelementptr inbounds nuw i8, ptr %11, i64 176
  %13 = load ptr, ptr %12, align 8
  %14 = load ptr, ptr %4, align 8
  %15 = tail call i32 @strcmp(ptr noundef %14, ptr noundef nonnull dereferenceable(5) @.str.12) #27
  %16 = icmp eq i32 %15, 0
  %17 = getelementptr inbounds nuw i8, ptr %0, i64 152
  %18 = load ptr, ptr %17, align 8
  br i1 %16, label %19, label %20

19:                                               ; preds = %9
  tail call void @_ZN15SequenceDiagram7setDataEP18_seq_analysis_info(ptr noundef align 8 dereferenceable_or_null(240) %18, ptr noundef nonnull %4)
  br label %74

20:                                               ; preds = %9
  %21 = load ptr, ptr %18, align 8
  %22 = getelementptr inbounds nuw i8, ptr %21, i64 232
  %23 = load ptr, ptr %22, align 8
  tail call void %23(ptr noundef align 8 dereferenceable_or_null(240) %18)
  %24 = load ptr, ptr %2, align 8
  %25 = load ptr, ptr %24, align 8
  tail call void @sequence_analysis_list_free(ptr noundef %25)
  %26 = load ptr, ptr %2, align 8
  %27 = load ptr, ptr %26, align 8
  %28 = load ptr, ptr %27, align 8
  %29 = tail call ptr @sequence_analysis_find_by_name(ptr noundef %28)
  %.not12 = icmp eq ptr %29, null
  br i1 %.not12, label %74, label %30

30:                                               ; preds = %20
  %31 = load ptr, ptr %10, align 8
  %32 = getelementptr inbounds nuw i8, ptr %31, i64 240
  %33 = load ptr, ptr %32, align 8
  %34 = tail call noundef i32 @_ZNK9QCheckBox10checkStateEv(ptr noundef align 8 dereferenceable_or_null(40) %33)
  %35 = icmp eq i32 %34, 2
  br i1 %35, label %36, label %46

36:                                               ; preds = %30
  %37 = getelementptr inbounds nuw i8, ptr %0, i64 72
  %38 = load ptr, ptr %37, align 8
  %39 = tail call noundef zeroext i1 @_ZNK11CaptureFile7isValidEv(ptr noundef align 8 dereferenceable_or_null(48) %38)
  br i1 %39, label %40, label %_ZNK11CaptureFile7capFileEv.exit

40:                                               ; preds = %36
  %41 = getelementptr inbounds nuw i8, ptr %38, i64 16
  %42 = load ptr, ptr %41, align 8
  br label %_ZNK11CaptureFile7capFileEv.exit

_ZNK11CaptureFile7capFileEv.exit:                 ; preds = %36, %40
  %43 = phi ptr [ %42, %40 ], [ null, %36 ]
  %44 = getelementptr inbounds nuw i8, ptr %43, i64 152
  %45 = load ptr, ptr %44, align 8
  br label %46

46:                                               ; preds = %_ZNK11CaptureFile7capFileEv.exit, %30
  %.0 = phi ptr [ %45, %_ZNK11CaptureFile7capFileEv.exit ], [ null, %30 ]
  %47 = tail call ptr @sequence_analysis_get_tap_listener_name(ptr noundef nonnull %29)
  %48 = load ptr, ptr %2, align 8
  %49 = load ptr, ptr %48, align 8
  %50 = tail call i32 @sequence_analysis_get_tap_flags(ptr noundef nonnull %29)
  %51 = tail call ptr @sequence_analysis_get_packet_func(ptr noundef nonnull %29)
  %52 = tail call ptr @register_tap_listener(ptr noundef %47, ptr noundef %49, ptr noundef %.0, i32 noundef %50, ptr noundef null, ptr noundef %51, ptr noundef null, ptr noundef null)
  %.not13 = icmp eq ptr %52, null
  br i1 %.not13, label %56, label %53

53:                                               ; preds = %46
  %54 = load ptr, ptr %52, align 8
  tail call void (ptr, ...) @report_failure(ptr noundef nonnull @.str.34, ptr noundef %54)
  %55 = tail call ptr @g_string_free(ptr noundef nonnull %52, i32 noundef 1)
  br label %56

56:                                               ; preds = %53, %46
  %57 = getelementptr inbounds nuw i8, ptr %0, i64 72
  %58 = load ptr, ptr %57, align 8
  %59 = tail call noundef zeroext i1 @_ZNK11CaptureFile7isValidEv(ptr noundef align 8 dereferenceable_or_null(48) %58)
  br i1 %59, label %60, label %_ZNK11CaptureFile7capFileEv.exit14

60:                                               ; preds = %56
  %61 = getelementptr inbounds nuw i8, ptr %58, i64 16
  %62 = load ptr, ptr %61, align 8
  br label %_ZNK11CaptureFile7capFileEv.exit14

_ZNK11CaptureFile7capFileEv.exit14:               ; preds = %56, %60
  %63 = phi ptr [ %62, %60 ], [ null, %56 ]
  %64 = tail call i32 @cf_retap_packets(ptr noundef %63)
  %65 = load ptr, ptr %2, align 8
  %66 = load ptr, ptr %65, align 8
  tail call void @remove_tap_listener(ptr noundef %66)
  %67 = load ptr, ptr %2, align 8
  %68 = load ptr, ptr %67, align 8
  %69 = tail call i32 @sequence_analysis_get_nodes(ptr noundef %68)
  %70 = getelementptr inbounds nuw i8, ptr %0, i64 168
  store i32 %69, ptr %70, align 8
  %71 = load ptr, ptr %17, align 8
  %72 = load ptr, ptr %2, align 8
  %73 = load ptr, ptr %72, align 8
  tail call void @_ZN15SequenceDiagram7setDataEP18_seq_analysis_info(ptr noundef align 8 dereferenceable_or_null(240) %71, ptr noundef %73)
  br label %74

74:                                               ; preds = %20, %_ZNK11CaptureFile7capFileEv.exit14, %19
  %75 = getelementptr inbounds nuw i8, ptr %0, i64 176
  %76 = load double, ptr %75, align 8
  %77 = fmul double %76, 1.500000e+01
  %78 = fptosi double %77 to i32
  %79 = getelementptr inbounds nuw i8, ptr %0, i64 184
  store i32 %78, ptr %79, align 8
  tail call void @_ZN14SequenceDialog10mouseMovedEP11QMouseEvent(ptr noundef align 8 dereferenceable_or_null(305) %0, ptr noundef null)
  tail call void @_ZN14SequenceDialog9resetAxesEb(ptr noundef align 8 dereferenceable_or_null(305) %0, i1 noundef zeroext false)
  tail call void @_ZN7QWidget8setFocusEN2Qt11FocusReasonE(ptr noundef align 8 dereferenceable_or_null(40) %13, i32 noundef 7)
  br label %80

80:                                               ; preds = %1, %5, %74
  ret void
}